target datalayout = "e-m:e-p270:32:32-p271:32:32-p272:64:64-i64:64-i128:128-f80:128-n8:16:32:64-S128"
target triple = "x86_64-pc-linux-gnu"

%struct.QTailQLink = type { ptr, ptr }
%struct.DriveInfo = type { i32, i32, i32, i32, i8, i32, ptr, %union.anon.10 }
%union.anon.10 = type { %struct.QTailQLink }
%struct.Location = type { i32, i32, ptr, ptr }

@.str = private unnamed_addr constant [22 x i8] c"qemu_in_main_thread()\00", align 1
@.str.1 = private unnamed_addr constant [19 x i8] c"../qemu/blockdev.c\00", align 1
@if_name = internal constant [9 x ptr] [ptr @.str.174, ptr @.str.175, ptr @.str.176, ptr @.str.177, ptr @.str.178, ptr @.str.179, ptr @.str.180, ptr @.str.181, ptr @.str.182], align 16
@__PRETTY_FUNCTION__.drive_check_orphaned = private unnamed_addr constant [32 x i8] c"void drive_check_orphaned(void)\00", align 1
@.str.7 = private unnamed_addr constant [51 x i8] c"machine type does not support if=%s,bus=%d,unit=%d\00", align 1

; Function Attrs: nounwind sspstrong uwtable
define dso_local void @drive_check_orphaned() #0 {
  %1 = alloca ptr, align 8
  %2 = alloca ptr, align 8
  %3 = alloca %struct.Location, align 8
  %4 = alloca i8, align 1
  call void @llvm.lifetime.start.p0(i64 8, ptr %1) #16
  store ptr null, ptr %1, align 8, !annotation !4
  call void @llvm.lifetime.start.p0(i64 8, ptr %2) #16
  store ptr null, ptr %2, align 8, !annotation !4
  call void @llvm.lifetime.start.p0(i64 24, ptr %3) #16
  call void @llvm.memset.p0.i64(ptr align 8 %3, i8 0, i64 24, i1 false), !annotation !4
  call void @llvm.lifetime.start.p0(i64 1, ptr %4) #16
  store i8 0, ptr %4, align 1
  br label %5

5:                                                ; preds = %0
  %6 = call zeroext i1 @qemu_in_main_thread()
  br i1 %6, label %7, label %8

7:                                                ; preds = %5
  br label %9

8:                                                ; preds = %5
  call void @__assert_fail(ptr noundef @.str, ptr noundef @.str.1, i32 noundef 250, ptr noundef @__PRETTY_FUNCTION__.drive_check_orphaned) #15
  unreachable

9:                                                ; preds = %7
  br label %10

10:                                               ; preds = %9
  br label %11

11:                                               ; preds = %10
  %12 = call ptr @blk_next(ptr noundef null)
  store ptr %12, ptr %1, align 8
  br label %13

13:                                               ; preds = %62, %11
  %14 = load ptr, ptr %1, align 8
  %15 = icmp ne ptr %14, null
  br i1 %15, label %16, label %65

16:                                               ; preds = %13
  %17 = load ptr, ptr %1, align 8
  %18 = call ptr @blk_legacy_dinfo(ptr noundef %17)
  store ptr %18, ptr %2, align 8
  %19 = load ptr, ptr %2, align 8
  %20 = getelementptr inbounds nuw %struct.DriveInfo, ptr %19, i32 0, i32 4
  %21 = load i8, ptr %20, align 8, !range !7, !noundef !8
  %22 = trunc i8 %21 to i1
  br i1 %22, label %38, label %23

23:                                               ; preds = %16
  %24 = load ptr, ptr %2, align 8
  %25 = getelementptr inbounds nuw %struct.DriveInfo, ptr %24, i32 0, i32 0
  %26 = load i32, ptr %25, align 8
  %27 = icmp eq i32 %26, 7
  br i1 %27, label %38, label %28

28:                                               ; preds = %23
  %29 = load ptr, ptr %2, align 8
  %30 = getelementptr inbounds nuw %struct.DriveInfo, ptr %29, i32 0, i32 0
  %31 = load i32, ptr %30, align 8
  %32 = icmp eq i32 %31, 8
  br i1 %32, label %38, label %33

33:                                               ; preds = %28
  %34 = load ptr, ptr %2, align 8
  %35 = getelementptr inbounds nuw %struct.DriveInfo, ptr %34, i32 0, i32 0
  %36 = load i32, ptr %35, align 8
  %37 = icmp eq i32 %36, 0
  br i1 %37, label %38, label %39

38:                                               ; preds = %33, %28, %23, %16
  br label %62

39:                                               ; preds = %33
  %40 = load ptr, ptr %1, align 8
  %41 = call ptr @blk_get_attached_dev(ptr noundef %40)
  %42 = icmp ne ptr %41, null
  br i1 %42, label %61, label %43

43:                                               ; preds = %39
  %44 = call ptr @loc_push_none(ptr noundef %3)
  %45 = load ptr, ptr %2, align 8
  %46 = getelementptr inbounds nuw %struct.DriveInfo, ptr %45, i32 0, i32 6
  %47 = load ptr, ptr %46, align 8
  call void @qemu_opts_loc_restore(ptr noundef %47)
  %48 = load ptr, ptr %2, align 8
  %49 = getelementptr inbounds nuw %struct.DriveInfo, ptr %48, i32 0, i32 0
  %50 = load i32, ptr %49, align 8
  %51 = sext i32 %50 to i64
  %52 = getelementptr inbounds [9 x ptr], ptr @if_name, i64 0, i64 %51
  %53 = load ptr, ptr %52, align 8
  %54 = load ptr, ptr %2, align 8
  %55 = getelementptr inbounds nuw %struct.DriveInfo, ptr %54, i32 0, i32 1
  %56 = load i32, ptr %55, align 4
  %57 = load ptr, ptr %2, align 8
  %58 = getelementptr inbounds nuw %struct.DriveInfo, ptr %57, i32 0, i32 2
  %59 = load i32, ptr %58, align 8
  call void (ptr, ...) @error_report(ptr noundef @.str.7, ptr noundef %53, i32 noundef %56, i32 noundef %59)
  %60 = call ptr @loc_pop(ptr noundef %3)
  store i8 1, ptr %4, align 1
  br label %61

61:                                               ; preds = %43, %39
  br label %62

62:                                               ; preds = %61, %38
  %63 = load ptr, ptr %1, align 8
  %64 = call ptr @blk_next(ptr noundef %63)
  store ptr %64, ptr %1, align 8
  br label %13, !llvm.loop !13

65:                                               ; preds = %13
  %66 = load i8, ptr %4, align 1, !range !7, !noundef !8
  %67 = trunc i8 %66 to i1
  br i1 %67, label %68, label %69

68:                                               ; preds = %65
  call void @exit(i32 noundef 1) #15
  unreachable

69:                                               ; preds = %65
  call void @llvm.lifetime.end.p0(i64 1, ptr %4) #16
  call void @llvm.lifetime.end.p0(i64 24, ptr %3) #16
  call void @llvm.lifetime.end.p0(i64 8, ptr %2) #16
  call void @llvm.lifetime.end.p0(i64 8, ptr %1) #16
  ret void
}