; Function Attrs: nounwind sspstrong uwtable
define dso_local void @drive_check_orphaned() local_unnamed_addr #0 {
  %1 = alloca %struct.Location, align 8
  call void @llvm.lifetime.start.p0(i64 24, ptr nonnull %1) #14
  %2 = tail call zeroext i1 @qemu_in_main_thread() #14
  br i1 %2, label %4, label %3

3:                                                ; preds = %0
  tail call void @__assert_fail(ptr noundef nonnull @.str, ptr noundef nonnull @.str.1, i32 noundef 250, ptr noundef nonnull @__PRETTY_FUNCTION__.drive_check_orphaned) #15
  unreachable

4:                                                ; preds = %0
  %5 = tail call ptr @blk_next(ptr noundef null) #14
  %.not15 = icmp eq ptr %5, null
  br i1 %.not15, label %.critedge, label %.lr.ph.preheader

.lr.ph.preheader:                                 ; preds = %4
  call void @llvm.memset.p0.i64(ptr noundef nonnull align 8 dereferenceable(24) %1, i8 0, i64 24, i1 false), !annotation !10
  br label %.lr.ph.outer

.lr.ph.outer:                                     ; preds = %.thread, %.lr.ph.preheader
  %.017.ph = phi i1 [ true, %.thread ], [ false, %.lr.ph.preheader ]
  %.01216.ph = phi ptr [ %28, %.thread ], [ %5, %.lr.ph.preheader ]
  br label %.lr.ph

.lr.ph:                                           ; preds = %.lr.ph.outer, %14
  %.01216 = phi ptr [ %15, %14 ], [ %.01216.ph, %.lr.ph.outer ]
  %6 = call ptr @blk_legacy_dinfo(ptr noundef nonnull %.01216) #14
  %7 = getelementptr inbounds nuw i8, ptr %6, i64 16
  %8 = load i8, ptr %7, align 8, !range !6, !noundef !7
  %9 = trunc nuw i8 %8 to i1
  br i1 %9, label %14, label %10

10:                                               ; preds = %.lr.ph
  %11 = load i32, ptr %6, align 8
  switch i32 %11, label %12 [
    i32 7, label %14
    i32 8, label %14
    i32 0, label %14
  ]

12:                                               ; preds = %10
  %13 = call ptr @blk_get_attached_dev(ptr noundef nonnull %.01216) #14
  %.not14 = icmp eq ptr %13, null
  br i1 %.not14, label %.thread, label %14

14:                                               ; preds = %10, %10, %10, %12, %.lr.ph
  %15 = call ptr @blk_next(ptr noundef nonnull %.01216) #14
  %.not = icmp eq ptr %15, null
  br i1 %.not, label %._crit_edge, label %.lr.ph, !llvm.loop !11

.thread:                                          ; preds = %12
  %16 = call ptr @loc_push_none(ptr noundef nonnull %1) #14
  %17 = getelementptr inbounds nuw i8, ptr %6, i64 24
  %18 = load ptr, ptr %17, align 8
  call void @qemu_opts_loc_restore(ptr noundef %18) #14
  %19 = load i32, ptr %6, align 8
  %20 = sext i32 %19 to i64
  %21 = getelementptr inbounds [9 x ptr], ptr @if_name, i64 0, i64 %20
  %22 = load ptr, ptr %21, align 8
  %23 = getelementptr inbounds nuw i8, ptr %6, i64 4
  %24 = load i32, ptr %23, align 4
  %25 = getelementptr inbounds nuw i8, ptr %6, i64 8
  %26 = load i32, ptr %25, align 8
  call void (ptr, ...) @error_report(ptr noundef nonnull @.str.7, ptr noundef %22, i32 noundef %24, i32 noundef %26) #14
  %27 = call ptr @loc_pop(ptr noundef nonnull %1) #14
  %28 = call ptr @blk_next(ptr noundef nonnull %.01216) #14
  %.not19 = icmp eq ptr %28, null
  br i1 %.not19, label %._crit_edge.thread, label %.lr.ph.outer, !llvm.loop !11

._crit_edge:                                      ; preds = %14
  br i1 %.017.ph, label %._crit_edge.thread, label %.critedge

._crit_edge.thread:                               ; preds = %.thread, %._crit_edge
  call void @exit(i32 noundef 1) #16
  unreachable

.critedge:                                        ; preds = %4, %._crit_edge
  call void @llvm.lifetime.end.p0(i64 24, ptr nonnull %1) #14
  ret void
}